target datalayout = "e-m:e-p270:32:32-p271:32:32-p272:64:64-i64:64-i128:128-f80:128-n8:16:32:64-S128"
target triple = "x86_64-pc-linux-gnu"

%struct.AVTextFormatSection = type { i32, ptr, i32, [12 x i32], ptr, ptr, ptr, ptr, i32, ptr, ptr, ptr, ptr }

; Function Attrs: inlinehint nounwind uwtable
define internal i32 @check_section_show_entries(i32 noundef %0) #5 {
  %2 = alloca i32, align 4
  %3 = alloca i32, align 4
  %4 = alloca ptr, align 8
  %5 = alloca i32, align 4
  %6 = alloca ptr, align 8
  store i32 %0, ptr %3, align 4, !tbaa !11
  call void @llvm.lifetime.start.p0(i64 8, ptr %4) #14
  %7 = load i32, ptr %3, align 4, !tbaa !11
  %8 = sext i32 %7 to i64
  %9 = getelementptr inbounds [66 x %struct.AVTextFormatSection], ptr @sections, i64 0, i64 %8
  store ptr %9, ptr %4, align 8, !tbaa !60
  %10 = load i32, ptr %3, align 4, !tbaa !11
  %11 = sext i32 %10 to i64
  %12 = getelementptr inbounds [66 x %struct.AVTextFormatSection], ptr @sections, i64 0, i64 %11
  %13 = getelementptr inbounds nuw %struct.AVTextFormatSection, ptr %12, i32 0, i32 8
  %14 = load i32, ptr %13, align 8, !tbaa !61
  %15 = icmp ne i32 %14, 0
  br i1 %15, label %23, label %16

16:                                               ; preds = %1
  %17 = load i32, ptr %3, align 4, !tbaa !11
  %18 = sext i32 %17 to i64
  %19 = getelementptr inbounds [66 x %struct.AVTextFormatSection], ptr @sections, i64 0, i64 %18
  %20 = getelementptr inbounds nuw %struct.AVTextFormatSection, ptr %19, i32 0, i32 6
  %21 = load ptr, ptr %20, align 8, !tbaa !64
  %22 = icmp ne ptr %21, null
  br i1 %22, label %23, label %24

23:                                               ; preds = %16, %1
  store i32 1, ptr %2, align 4
  store i32 1, ptr %5, align 4
  br label %46

24:                                               ; preds = %16
  call void @llvm.lifetime.start.p0(i64 8, ptr %6) #14
  %25 = load ptr, ptr %4, align 8, !tbaa !60
  %26 = getelementptr inbounds nuw %struct.AVTextFormatSection, ptr %25, i32 0, i32 3
  %27 = getelementptr inbounds [12 x i32], ptr %26, i64 0, i64 0
  store ptr %27, ptr %6, align 8, !tbaa !65
  br label %28

28:                                               ; preds = %40, %24
  %29 = load ptr, ptr %6, align 8, !tbaa !65
  %30 = load i32, ptr %29, align 4, !tbaa !11
  %31 = icmp ne i32 %30, -1
  br i1 %31, label %33, label %32

32:                                               ; preds = %28
  store i32 2, ptr %5, align 4
  br label %43

33:                                               ; preds = %28
  %34 = load ptr, ptr %6, align 8, !tbaa !65
  %35 = load i32, ptr %34, align 4, !tbaa !11
  %36 = call i32 @check_section_show_entries(i32 noundef %35)
  %37 = icmp ne i32 %36, 0
  br i1 %37, label %38, label %39

38:                                               ; preds = %33
  store i32 1, ptr %2, align 4
  store i32 1, ptr %5, align 4
  br label %43

39:                                               ; preds = %33
  br label %40

40:                                               ; preds = %39
  %41 = load ptr, ptr %6, align 8, !tbaa !65
  %42 = getelementptr inbounds nuw i32, ptr %41, i32 1
  store ptr %42, ptr %6, align 8, !tbaa !65
  br label %28, !llvm.loop !67

43:                                               ; preds = %38, %32
  call void @llvm.lifetime.end.p0(i64 8, ptr %6) #14
  %44 = load i32, ptr %5, align 4
  switch i32 %44, label %46 [
    i32 2, label %45
  ]

45:                                               ; preds = %43
  store i32 0, ptr %2, align 4
  store i32 1, ptr %5, align 4
  br label %46

46:                                               ; preds = %45, %43, %23
  call void @llvm.lifetime.end.p0(i64 8, ptr %4) #14
  %47 = load i32, ptr %2, align 4
  ret i32 %47
}