; Function Attrs: inlinehint nofree nosync nounwind memory(read, argmem: none, inaccessiblemem: none) uwtable
define internal fastcc range(i32 0, 2) i32 @check_section_show_entries(i32 noundef range(i32 0, -1) %0) unnamed_addr #5 {
  %2 = sext i32 %0 to i64
  %3 = getelementptr inbounds [66 x %struct.AVTextFormatSection], ptr @sections, i64 0, i64 %2
  %4 = getelementptr inbounds nuw i8, ptr %3, i64 104
  %5 = load i32, ptr %4, align 8, !tbaa !67
  %.not = icmp eq i32 %5, 0
  br i1 %.not, label %6, label %._crit_edge

6:                                                ; preds = %1
  %7 = getelementptr inbounds nuw i8, ptr %3, i64 88
  %8 = load ptr, ptr %7, align 8, !tbaa !70
  %.not11 = icmp eq ptr %8, null
  br i1 %.not11, label %9, label %._crit_edge

9:                                                ; preds = %6
  %10 = getelementptr inbounds nuw i8, ptr %3, i64 20
  %11 = load i32, ptr %10, align 4, !tbaa !11
  %.not1214.not = icmp eq i32 %11, -1
  br i1 %.not1214.not, label %._crit_edge, label %.lr.ph

12:                                               ; preds = %.lr.ph
  %13 = getelementptr inbounds nuw i8, ptr %.015, i64 4
  %14 = load i32, ptr %13, align 4, !tbaa !11
  %.not12.not = icmp eq i32 %14, -1
  br i1 %.not12.not, label %._crit_edge, label %.lr.ph, !llvm.loop !71

.lr.ph:                                           ; preds = %9, %12
  %15 = phi i32 [ %14, %12 ], [ %11, %9 ]
  %.015 = phi ptr [ %13, %12 ], [ %10, %9 ]
  %16 = tail call fastcc i32 @check_section_show_entries(i32 noundef %15)
  %.not13 = icmp eq i32 %16, 0
  br i1 %.not13, label %12, label %._crit_edge

._crit_edge:                                      ; preds = %.lr.ph, %12, %9, %1, %6
  %.09 = phi i32 [ 1, %6 ], [ 1, %1 ], [ 0, %9 ], [ 1, %.lr.ph ], [ 0, %12 ]
  ret i32 %.09
}